; Function Attrs: nounwind uwtable
define internal noundef ptr @readline_set_completer(ptr noundef %0, ptr noundef readonly captures(none) %1, i64 noundef %2) #0 {
  %or.cond = icmp ult i64 %2, 2
  br i1 %or.cond, label %6, label %4

4:                                                ; preds = %3
  %5 = tail call i32 @_PyArg_CheckPositional(ptr noundef nonnull @.str.18, i64 noundef %2, i64 noundef 0, i64 noundef 1) #14
  %.not = icmp eq i32 %5, 0
  br i1 %.not, label %14, label %6

6:                                                ; preds = %3, %4
  %7 = icmp slt i64 %2, 1
  br i1 %7, label %10, label %8

8:                                                ; preds = %6
  %9 = load ptr, ptr %1, align 8, !tbaa !41
  br label %10

10:                                               ; preds = %6, %8
  %.0 = phi ptr [ @_Py_NoneStruct, %6 ], [ %9, %8 ]
  %11 = tail call ptr @PyModule_GetState(ptr noundef %0) #14
  %12 = getelementptr inbounds nuw i8, ptr %11, i64 24
  %13 = tail call fastcc noundef ptr @set_hook(ptr noundef nonnull @.str.38, ptr noundef nonnull %12, ptr noundef %.0)
  br label %14

14:                                               ; preds = %4, %10
  %.08 = phi ptr [ %13, %10 ], [ null, %4 ]
  ret ptr %.08
}